target datalayout = "e-m:e-p270:32:32-p271:32:32-p272:64:64-i64:64-i128:128-f80:128-n8:16:32:64-S128"
target triple = "x86_64-pc-linux-gnu"

%struct.wtap = type { ptr, ptr, i8, i32, i32, ptr, ptr, ptr, i32, ptr, ptr, ptr, ptr, ptr, ptr, ptr, ptr, ptr, ptr, i32, i32, ptr, ptr, ptr, ptr }
%struct.ngsniffer_t = type { i32, i32, i8, i32, i64, i32, %struct.ngsniffer_comp_stream_t, %struct.ngsniffer_comp_stream_t, ptr, ptr, ptr }
%struct.ngsniffer_comp_stream_t = type { ptr, i32, i32, i64, i64 }
%struct.rec_header = type { i16, i16 }

; Function Attrs: inlinehint nounwind null_pointer_is_valid sspstrong uwtable
define internal zeroext i16 @pletoh16(ptr noundef %0) #4 {
  %2 = alloca ptr, align 8
  store ptr %0, ptr %2, align 8
  %3 = load ptr, ptr %2, align 8
  %4 = getelementptr i8, ptr %3, i64 1
  %5 = load i8, ptr %4, align 1
  %6 = zext i8 %5 to i16
  %7 = zext i16 %6 to i32
  %8 = shl i32 %7, 8
  %9 = load ptr, ptr %2, align 8
  %10 = getelementptr i8, ptr %9, i64 0
  %11 = load i8, ptr %10, align 1
  %12 = zext i8 %11 to i16
  %13 = zext i16 %12 to i32
  %14 = shl i32 %13, 0
  %15 = or i32 %8, %14
  %16 = trunc i32 %15 to i16
  ret i16 %16
}

; Function Attrs: null_pointer_is_valid sspstrong uwtable
define internal zeroext i1 @ng_read_bytes(ptr noundef %0, ptr noundef %1, i32 noundef %2, i1 noundef zeroext %3, ptr noundef %4, ptr noundef %5) #0 {
  %7 = alloca i1, align 1
  %8 = alloca ptr, align 8
  %9 = alloca ptr, align 8
  %10 = alloca i32, align 4
  %11 = alloca i8, align 1
  %12 = alloca ptr, align 8
  %13 = alloca ptr, align 8
  store ptr %0, ptr %8, align 8
  store ptr %1, ptr %9, align 8
  store i32 %2, ptr %10, align 4
  %14 = zext i1 %3 to i8
  store i8 %14, ptr %11, align 1
  store ptr %4, ptr %12, align 8
  store ptr %5, ptr %13, align 8
  %15 = load ptr, ptr %8, align 8
  %16 = load ptr, ptr %9, align 8
  %17 = load i32, ptr %10, align 4
  %18 = load i8, ptr %11, align 1, !range !6, !noundef !7
  %19 = trunc i8 %18 to i1
  %20 = load ptr, ptr %12, align 8
  %21 = load ptr, ptr %13, align 8
  %22 = call zeroext i1 @ng_read_bytes_or_eof(ptr noundef %15, ptr noundef %16, i32 noundef %17, i1 noundef zeroext %19, ptr noundef %20, ptr noundef %21)
  br i1 %22, label %30, label %23

23:                                               ; preds = %6
  %24 = load ptr, ptr %12, align 8
  %25 = load i32, ptr %24, align 4
  %26 = icmp eq i32 %25, 0
  br i1 %26, label %27, label %29

27:                                               ; preds = %23
  %28 = load ptr, ptr %12, align 8
  store i32 -12, ptr %28, align 4
  br label %29

29:                                               ; preds = %27, %23
  store i1 false, ptr %7, align 1
  br label %31

30:                                               ; preds = %6
  store i1 true, ptr %7, align 1
  br label %31

31:                                               ; preds = %30, %29
  %32 = load i1, ptr %7, align 1
  ret i1 %32
}

; Function Attrs: null_pointer_is_valid sspstrong uwtable
define internal zeroext i1 @read_rec_header(ptr noundef %0, i1 noundef zeroext %1, ptr noundef %2, ptr noundef %3, ptr noundef %4) #0 {
  %6 = alloca i1, align 1
  %7 = alloca ptr, align 8
  %8 = alloca i8, align 1
  %9 = alloca ptr, align 8
  %10 = alloca ptr, align 8
  %11 = alloca ptr, align 8
  %12 = alloca [2 x i8], align 1
  %13 = alloca [4 x i8], align 1
  %14 = alloca i32, align 4
  store ptr %0, ptr %7, align 8
  %15 = zext i1 %1 to i8
  store i8 %15, ptr %8, align 1
  store ptr %2, ptr %9, align 8
  store ptr %3, ptr %10, align 8
  store ptr %4, ptr %11, align 8
  call void @llvm.lifetime.start.p0(i64 2, ptr %12) #14
  call void @llvm.lifetime.start.p0(i64 4, ptr %13) #14
  %16 = load ptr, ptr %7, align 8
  %17 = getelementptr inbounds [2 x i8], ptr %12, i64 0, i64 0
  %18 = load i8, ptr %8, align 1, !range !6, !noundef !7
  %19 = trunc i8 %18 to i1
  %20 = load ptr, ptr %10, align 8
  %21 = load ptr, ptr %11, align 8
  %22 = call zeroext i1 @ng_read_bytes_or_eof(ptr noundef %16, ptr noundef %17, i32 noundef 2, i1 noundef zeroext %19, ptr noundef %20, ptr noundef %21)
  br i1 %22, label %33, label %23

23:                                               ; preds = %5
  %24 = load ptr, ptr %10, align 8
  %25 = load i32, ptr %24, align 4
  %26 = icmp ne i32 %25, 0
  br i1 %26, label %27, label %28

27:                                               ; preds = %23
  store i1 false, ptr %6, align 1
  store i32 1, ptr %14, align 4
  br label %51

28:                                               ; preds = %23
  %29 = load ptr, ptr %9, align 8
  %30 = getelementptr inbounds nuw %struct.rec_header, ptr %29, i32 0, i32 0
  store i16 3, ptr %30, align 2
  %31 = load ptr, ptr %9, align 8
  %32 = getelementptr inbounds nuw %struct.rec_header, ptr %31, i32 0, i32 1
  store i16 0, ptr %32, align 2
  store i1 true, ptr %6, align 1
  store i32 1, ptr %14, align 4
  br label %51

33:                                               ; preds = %5
  %34 = load ptr, ptr %7, align 8
  %35 = getelementptr inbounds [4 x i8], ptr %13, i64 0, i64 0
  %36 = load i8, ptr %8, align 1, !range !6, !noundef !7
  %37 = trunc i8 %36 to i1
  %38 = load ptr, ptr %10, align 8
  %39 = load ptr, ptr %11, align 8
  %40 = call zeroext i1 @ng_read_bytes(ptr noundef %34, ptr noundef %35, i32 noundef 4, i1 noundef zeroext %37, ptr noundef %38, ptr noundef %39)
  br i1 %40, label %42, label %41

41:                                               ; preds = %33
  store i1 false, ptr %6, align 1
  store i32 1, ptr %14, align 4
  br label %51

42:                                               ; preds = %33
  %43 = getelementptr inbounds [2 x i8], ptr %12, i64 0, i64 0
  %44 = call zeroext i16 @pletoh16(ptr noundef %43)
  %45 = load ptr, ptr %9, align 8
  %46 = getelementptr inbounds nuw %struct.rec_header, ptr %45, i32 0, i32 0
  store i16 %44, ptr %46, align 2
  %47 = getelementptr inbounds [4 x i8], ptr %13, i64 0, i64 0
  %48 = call zeroext i16 @pletoh16(ptr noundef %47)
  %49 = load ptr, ptr %9, align 8
  %50 = getelementptr inbounds nuw %struct.rec_header, ptr %49, i32 0, i32 1
  store i16 %48, ptr %50, align 2
  store i1 true, ptr %6, align 1
  store i32 1, ptr %14, align 4
  br label %51

51:                                               ; preds = %42, %41, %28, %27
  call void @llvm.lifetime.end.p0(i64 4, ptr %13) #14
  call void @llvm.lifetime.end.p0(i64 2, ptr %12) #14
  %52 = load i1, ptr %6, align 1
  ret i1 %52
}

; Function Attrs: null_pointer_is_valid sspstrong uwtable
define internal zeroext i1 @ngsniffer_read(ptr noundef %0, ptr noundef %1, ptr noundef %2, ptr noundef %3, ptr noundef %4) #0 {
  %6 = alloca i1, align 1
  %7 = alloca ptr, align 8
  %8 = alloca ptr, align 8
  %9 = alloca ptr, align 8
  %10 = alloca ptr, align 8
  %11 = alloca ptr, align 8
  %12 = alloca ptr, align 8
  %13 = alloca %struct.rec_header, align 2
  %14 = alloca i32, align 4
  %15 = alloca i32, align 4
  store ptr %0, ptr %7, align 8
  store ptr %1, ptr %8, align 8
  store ptr %2, ptr %9, align 8
  store ptr %3, ptr %10, align 8
  store ptr %4, ptr %11, align 8
  call void @llvm.lifetime.start.p0(i64 8, ptr %12) #14
  call void @llvm.lifetime.start.p0(i64 4, ptr %13) #14
  call void @llvm.lifetime.start.p0(i64 4, ptr %14) #14
  %16 = load ptr, ptr %7, align 8
  %17 = getelementptr inbounds nuw %struct.wtap, ptr %16, i32 0, i32 13
  %18 = load ptr, ptr %17, align 8
  store ptr %18, ptr %12, align 8
  br label %19

19:                                               ; preds = %86, %5
  %20 = load ptr, ptr %12, align 8
  %21 = getelementptr inbounds nuw %struct.ngsniffer_t, ptr %20, i32 0, i32 6
  %22 = getelementptr inbounds nuw %struct.ngsniffer_comp_stream_t, ptr %21, i32 0, i32 4
  %23 = load i64, ptr %22, align 8
  %24 = load ptr, ptr %11, align 8
  store i64 %23, ptr %24, align 8
  %25 = load ptr, ptr %7, align 8
  %26 = load ptr, ptr %9, align 8
  %27 = load ptr, ptr %10, align 8
  %28 = call zeroext i1 @read_rec_header(ptr noundef %25, i1 noundef zeroext false, ptr noundef %13, ptr noundef %26, ptr noundef %27)
  br i1 %28, label %30, label %29

29:                                               ; preds = %19
  store i1 false, ptr %6, align 1
  store i32 1, ptr %15, align 4
  br label %87

30:                                               ; preds = %19
  %31 = getelementptr inbounds nuw %struct.rec_header, ptr %13, i32 0, i32 0
  %32 = load i16, ptr %31, align 2
  %33 = zext i16 %32 to i32
  switch i32 %33, label %70 [
    i32 4, label %34
    i32 8, label %34
    i32 12, label %34
    i32 3, label %53
  ]

34:                                               ; preds = %30, %30, %30
  %35 = load ptr, ptr %7, align 8
  %36 = load ptr, ptr %8, align 8
  %37 = load ptr, ptr %9, align 8
  %38 = load ptr, ptr %10, align 8
  %39 = call zeroext i1 @process_frame_record(ptr noundef %35, i1 noundef zeroext false, ptr noundef %14, ptr noundef %13, ptr noundef %36, ptr noundef %37, ptr noundef %38)
  br i1 %39, label %41, label %40

40:                                               ; preds = %34
  store i1 false, ptr %6, align 1
  store i32 1, ptr %15, align 4
  br label %87

41:                                               ; preds = %34
  %42 = load i32, ptr %14, align 4
  %43 = icmp ne i32 %42, 0
  br i1 %43, label %44, label %52

44:                                               ; preds = %41
  %45 = load ptr, ptr %7, align 8
  %46 = load i32, ptr %14, align 4
  %47 = load ptr, ptr %9, align 8
  %48 = load ptr, ptr %10, align 8
  %49 = call zeroext i1 @ng_skip_bytes_seq(ptr noundef %45, i32 noundef %46, ptr noundef %47, ptr noundef %48)
  br i1 %49, label %51, label %50

50:                                               ; preds = %44
  store i1 false, ptr %6, align 1
  store i32 1, ptr %15, align 4
  br label %87

51:                                               ; preds = %44
  br label %52

52:                                               ; preds = %51, %41
  store i1 true, ptr %6, align 1
  store i32 1, ptr %15, align 4
  br label %87

53:                                               ; preds = %30
  %54 = getelementptr inbounds nuw %struct.rec_header, ptr %13, i32 0, i32 1
  %55 = load i16, ptr %54, align 2
  %56 = zext i16 %55 to i32
  %57 = icmp ne i32 %56, 0
  br i1 %57, label %58, label %68

58:                                               ; preds = %53
  %59 = load ptr, ptr %7, align 8
  %60 = getelementptr inbounds nuw %struct.rec_header, ptr %13, i32 0, i32 1
  %61 = load i16, ptr %60, align 2
  %62 = zext i16 %61 to i32
  %63 = load ptr, ptr %9, align 8
  %64 = load ptr, ptr %10, align 8
  %65 = call zeroext i1 @ng_skip_bytes_seq(ptr noundef %59, i32 noundef %62, ptr noundef %63, ptr noundef %64)
  br i1 %65, label %67, label %66

66:                                               ; preds = %58
  store i1 false, ptr %6, align 1
  store i32 1, ptr %15, align 4
  br label %87

67:                                               ; preds = %58
  br label %68

68:                                               ; preds = %67, %53
  %69 = load ptr, ptr %9, align 8
  store i32 0, ptr %69, align 4
  store i1 false, ptr %6, align 1
  store i32 1, ptr %15, align 4
  br label %87

70:                                               ; preds = %30
  %71 = getelementptr inbounds nuw %struct.rec_header, ptr %13, i32 0, i32 1
  %72 = load i16, ptr %71, align 2
  %73 = zext i16 %72 to i32
  %74 = icmp ne i32 %73, 0
  br i1 %74, label %75, label %85

75:                                               ; preds = %70
  %76 = load ptr, ptr %7, align 8
  %77 = getelementptr inbounds nuw %struct.rec_header, ptr %13, i32 0, i32 1
  %78 = load i16, ptr %77, align 2
  %79 = zext i16 %78 to i32
  %80 = load ptr, ptr %9, align 8
  %81 = load ptr, ptr %10, align 8
  %82 = call zeroext i1 @ng_skip_bytes_seq(ptr noundef %76, i32 noundef %79, ptr noundef %80, ptr noundef %81)
  br i1 %82, label %84, label %83

83:                                               ; preds = %75
  store i1 false, ptr %6, align 1
  store i32 1, ptr %15, align 4
  br label %87

84:                                               ; preds = %75
  br label %85

85:                                               ; preds = %84, %70
  br label %86

86:                                               ; preds = %85
  br label %19

87:                                               ; preds = %83, %68, %66, %52, %50, %40, %29
  call void @llvm.lifetime.end.p0(i64 4, ptr %14) #14
  call void @llvm.lifetime.end.p0(i64 4, ptr %13) #14
  call void @llvm.lifetime.end.p0(i64 8, ptr %12) #14
  %88 = load i1, ptr %6, align 1
  ret i1 %88
}